target datalayout = "e-m:e-p270:32:32-p271:32:32-p272:64:64-i64:64-i128:128-f80:128-n8:16:32:64-S128"
target triple = "x86_64-unknown-linux-gnu"

%"class.std::__cxx11::basic_string" = type { %"struct.std::__cxx11::basic_string<char>::_Alloc_hider", i64, %union.anon }
%"struct.std::__cxx11::basic_string<char>::_Alloc_hider" = type { ptr }
%union.anon = type { i64, [8 x i8] }
%"struct.glTF::Object" = type { ptr, %"class.std::__cxx11::basic_string", %"class.std::__cxx11::basic_string" }
%"struct.std::_Vector_base.79" = type { %"struct.std::_Vector_base<glTF::Node *, std::allocator<glTF::Node *>>::_Vector_impl" }
%"struct.std::_Vector_base<glTF::Node *, std::allocator<glTF::Node *>>::_Vector_impl" = type { %"struct.std::_Vector_base<glTF::Node *, std::allocator<glTF::Node *>>::_Vector_impl_data" }
%"struct.std::_Vector_base<glTF::Node *, std::allocator<glTF::Node *>>::_Vector_impl_data" = type { ptr, ptr, ptr }
%"struct.std::_Vector_base.97" = type { %"struct.std::_Vector_base<glTF::Skin *, std::allocator<glTF::Skin *>>::_Vector_impl" }
%"struct.std::_Vector_base<glTF::Skin *, std::allocator<glTF::Skin *>>::_Vector_impl" = type { %"struct.std::_Vector_base<glTF::Skin *, std::allocator<glTF::Skin *>>::_Vector_impl_data" }
%"struct.std::_Vector_base<glTF::Skin *, std::allocator<glTF::Skin *>>::_Vector_impl_data" = type { ptr, ptr, ptr }
%"class.glTFCommon::Ref.147" = type <{ ptr, i32, [4 x i8] }>
%"struct.glTF::Node" = type { %"struct.glTF::Object", %"class.std::vector.127", %"class.std::vector.132", %"struct.glTFCommon::Nullable", %"struct.glTFCommon::Nullable.137", %"struct.glTFCommon::Nullable.139", %"struct.glTFCommon::Nullable.137", %"class.glTFCommon::Ref.141", %"class.glTFCommon::Ref.143", %"class.std::vector.127", %"class.glTFCommon::Ref.145", %"class.std::__cxx11::basic_string", %"class.glTFCommon::Ref.147" }
%"class.std::vector.132" = type { %"struct.std::_Vector_base.133" }
%"struct.std::_Vector_base.133" = type { %"struct.std::_Vector_base<glTFCommon::Ref<glTF::Mesh>, std::allocator<glTFCommon::Ref<glTF::Mesh>>>::_Vector_impl" }
%"struct.std::_Vector_base<glTFCommon::Ref<glTF::Mesh>, std::allocator<glTFCommon::Ref<glTF::Mesh>>>::_Vector_impl" = type { %"struct.std::_Vector_base<glTFCommon::Ref<glTF::Mesh>, std::allocator<glTFCommon::Ref<glTF::Mesh>>>::_Vector_impl_data" }
%"struct.std::_Vector_base<glTFCommon::Ref<glTF::Mesh>, std::allocator<glTFCommon::Ref<glTF::Mesh>>>::_Vector_impl_data" = type { ptr, ptr, ptr }
%"struct.glTFCommon::Nullable" = type <{ [16 x float], i8, [3 x i8] }>
%"struct.glTFCommon::Nullable.139" = type <{ [4 x float], i8, [3 x i8] }>
%"struct.glTFCommon::Nullable.137" = type <{ [3 x float], i8, [3 x i8] }>
%"class.glTFCommon::Ref.141" = type <{ ptr, i32, [4 x i8] }>
%"class.glTFCommon::Ref.143" = type <{ ptr, i32, [4 x i8] }>
%"class.std::vector.127" = type { %"struct.std::_Vector_base.128" }
%"struct.std::_Vector_base.128" = type { %"struct.std::_Vector_base<glTFCommon::Ref<glTF::Node>, std::allocator<glTFCommon::Ref<glTF::Node>>>::_Vector_impl" }
%"struct.std::_Vector_base<glTFCommon::Ref<glTF::Node>, std::allocator<glTFCommon::Ref<glTF::Node>>>::_Vector_impl" = type { %"struct.std::_Vector_base<glTFCommon::Ref<glTF::Node>, std::allocator<glTFCommon::Ref<glTF::Node>>>::_Vector_impl_data" }
%"struct.std::_Vector_base<glTFCommon::Ref<glTF::Node>, std::allocator<glTFCommon::Ref<glTF::Node>>>::_Vector_impl_data" = type { ptr, ptr, ptr }
%"class.glTFCommon::Ref.145" = type <{ ptr, i32, [4 x i8] }>
%"class.glTFCommon::Ref.161" = type <{ ptr, i32, [4 x i8] }>
%"struct.glTF::Skin" = type { %"struct.glTF::Object", %"struct.glTFCommon::Nullable", [4 x i8], %"class.glTFCommon::Ref.161", %"class.std::vector.127", %"class.std::__cxx11::basic_string" }

; Function Attrs: mustprogress nounwind uwtable
define linkonce_odr hidden noundef nonnull align 8 dereferenceable(8) ptr @_ZNSt6vectorIPN4glTF4NodeESaIS2_EEixEm(ptr noundef nonnull align 8 dereferenceable(24) %this, i64 noundef %__n) #0 comdat align 2 {
entry:
  %this.addr = alloca ptr, align 8
  %__n.addr = alloca i64, align 8
  store ptr %this, ptr %this.addr, align 8
  store i64 %__n, ptr %__n.addr, align 8
  %this1 = load ptr, ptr %this.addr, align 8
  %_M_impl = getelementptr inbounds %"struct.std::_Vector_base.79", ptr %this1, i32 0, i32 0
  %_M_start = getelementptr inbounds %"struct.std::_Vector_base<glTF::Node *, std::allocator<glTF::Node *>>::_Vector_impl_data", ptr %_M_impl, i32 0, i32 0
  %0 = load ptr, ptr %_M_start, align 8
  %1 = load i64, ptr %__n.addr, align 8
  %add.ptr = getelementptr inbounds ptr, ptr %0, i64 %1
  ret ptr %add.ptr
}

; Function Attrs: mustprogress nounwind uwtable
define linkonce_odr hidden noundef nonnull align 8 dereferenceable(8) ptr @_ZNSt6vectorIPN4glTF4SkinESaIS2_EEixEm(ptr noundef nonnull align 8 dereferenceable(24) %this, i64 noundef %__n) #0 comdat align 2 {
entry:
  %this.addr = alloca ptr, align 8
  %__n.addr = alloca i64, align 8
  store ptr %this, ptr %this.addr, align 8
  store i64 %__n, ptr %__n.addr, align 8
  %this1 = load ptr, ptr %this.addr, align 8
  %_M_impl = getelementptr inbounds %"struct.std::_Vector_base.97", ptr %this1, i32 0, i32 0
  %_M_start = getelementptr inbounds %"struct.std::_Vector_base<glTF::Skin *, std::allocator<glTF::Skin *>>::_Vector_impl_data", ptr %_M_impl, i32 0, i32 0
  %0 = load ptr, ptr %_M_start, align 8
  %1 = load i64, ptr %__n.addr, align 8
  %add.ptr = getelementptr inbounds ptr, ptr %0, i64 %1
  ret ptr %add.ptr
}

; Function Attrs: mustprogress nounwind uwtable
define linkonce_odr hidden noundef ptr @_ZN10glTFCommon3RefIN4glTF4NodeEEptEv(ptr noundef nonnull align 8 dereferenceable(12) %this) #0 comdat align 2 {
entry:
  %this.addr = alloca ptr, align 8
  store ptr %this, ptr %this.addr, align 8
  %this1 = load ptr, ptr %this.addr, align 8
  %vector = getelementptr inbounds %"class.glTFCommon::Ref.147", ptr %this1, i32 0, i32 0
  %0 = load ptr, ptr %vector, align 8
  %index = getelementptr inbounds %"class.glTFCommon::Ref.147", ptr %this1, i32 0, i32 1
  %1 = load i32, ptr %index, align 8
  %conv = zext i32 %1 to i64
  %call = call noundef nonnull align 8 dereferenceable(8) ptr @_ZNSt6vectorIPN4glTF4NodeESaIS2_EEixEm(ptr noundef nonnull align 8 dereferenceable(24) %0, i64 noundef %conv) #16
  %2 = load ptr, ptr %call, align 8
  ret ptr %2
}

; Function Attrs: mustprogress nounwind uwtable
define linkonce_odr hidden noundef nonnull align 8 dereferenceable(12) ptr @_ZNSt6vectorIN10glTFCommon3RefIN4glTF4NodeEEESaIS4_EEixEm(ptr noundef nonnull align 8 dereferenceable(24) %this, i64 noundef %__n) #0 comdat align 2 {
entry:
  %this.addr = alloca ptr, align 8
  %__n.addr = alloca i64, align 8
  store ptr %this, ptr %this.addr, align 8
  store i64 %__n, ptr %__n.addr, align 8
  %this1 = load ptr, ptr %this.addr, align 8
  %_M_impl = getelementptr inbounds %"struct.std::_Vector_base.128", ptr %this1, i32 0, i32 0
  %_M_start = getelementptr inbounds %"struct.std::_Vector_base<glTFCommon::Ref<glTF::Node>, std::allocator<glTFCommon::Ref<glTF::Node>>>::_Vector_impl_data", ptr %_M_impl, i32 0, i32 0
  %0 = load ptr, ptr %_M_start, align 8
  %1 = load i64, ptr %__n.addr, align 8
  %add.ptr = getelementptr inbounds %"class.glTFCommon::Ref.147", ptr %0, i64 %1
  ret ptr %add.ptr
}

; Function Attrs: mustprogress nounwind uwtable
define linkonce_odr hidden noundef ptr @_ZN10glTFCommon3RefIN4glTF4SkinEEptEv(ptr noundef nonnull align 8 dereferenceable(12) %this) #0 comdat align 2 {
entry:
  %this.addr = alloca ptr, align 8
  store ptr %this, ptr %this.addr, align 8
  %this1 = load ptr, ptr %this.addr, align 8
  %vector = getelementptr inbounds %"class.glTFCommon::Ref.145", ptr %this1, i32 0, i32 0
  %0 = load ptr, ptr %vector, align 8
  %index = getelementptr inbounds %"class.glTFCommon::Ref.145", ptr %this1, i32 0, i32 1
  %1 = load i32, ptr %index, align 8
  %conv = zext i32 %1 to i64
  %call = call noundef nonnull align 8 dereferenceable(8) ptr @_ZNSt6vectorIPN4glTF4SkinESaIS2_EEixEm(ptr noundef nonnull align 8 dereferenceable(24) %0, i64 noundef %conv) #16
  %2 = load ptr, ptr %call, align 8
  ret ptr %2
}

; Function Attrs: mustprogress nounwind uwtable
define linkonce_odr hidden void @_ZN10glTFCommon3RefIN4glTF4NodeEEC2Ev(ptr noundef nonnull align 8 dereferenceable(12) %this) unnamed_addr #0 comdat align 2 {
entry:
  %this.addr = alloca ptr, align 8
  store ptr %this, ptr %this.addr, align 8
  %this1 = load ptr, ptr %this.addr, align 8
  %vector = getelementptr inbounds %"class.glTFCommon::Ref.147", ptr %this1, i32 0, i32 0
  store ptr null, ptr %vector, align 8
  %index = getelementptr inbounds %"class.glTFCommon::Ref.147", ptr %this1, i32 0, i32 1
  store i32 0, ptr %index, align 8
  ret void
}

; Function Attrs: mustprogress uwtable
define hidden { ptr, i32 } @_Z21FindSkeletonRootJointRN10glTFCommon3RefIN4glTF4SkinEEE(ptr noundef nonnull align 8 dereferenceable(12) %skinRef) #3 {
entry:
  %retval = alloca %"class.glTFCommon::Ref.147", align 8
  %skinRef.addr = alloca ptr, align 8
  %startNodeRef = alloca %"class.glTFCommon::Ref.147", align 8
  store ptr %skinRef, ptr %skinRef.addr, align 8
  call void @_ZN10glTFCommon3RefIN4glTF4NodeEEC2Ev(ptr noundef nonnull align 8 dereferenceable(12) %startNodeRef)
  call void @_ZN10glTFCommon3RefIN4glTF4NodeEEC2Ev(ptr noundef nonnull align 8 dereferenceable(12) %retval)
  %0 = load ptr, ptr %skinRef.addr, align 8
  %call = call noundef ptr @_ZN10glTFCommon3RefIN4glTF4SkinEEptEv(ptr noundef nonnull align 8 dereferenceable(12) %0)
  %jointNames = getelementptr inbounds %"struct.glTF::Skin", ptr %call, i32 0, i32 4
  %call1 = call noundef nonnull align 8 dereferenceable(12) ptr @_ZNSt6vectorIN10glTFCommon3RefIN4glTF4NodeEEESaIS4_EEixEm(ptr noundef nonnull align 8 dereferenceable(24) %jointNames, i64 noundef 0) #16
  call void @llvm.memcpy.p0.p0.i64(ptr align 8 %startNodeRef, ptr align 8 %call1, i64 12, i1 false)
  %1 = load ptr, ptr %skinRef.addr, align 8
  %call2 = call noundef ptr @_ZN10glTFCommon3RefIN4glTF4SkinEEptEv(ptr noundef nonnull align 8 dereferenceable(12) %1)
  %jointNames3 = getelementptr inbounds %"struct.glTF::Skin", ptr %call2, i32 0, i32 4
  %call4 = call noundef nonnull align 8 dereferenceable(12) ptr @_ZNSt6vectorIN10glTFCommon3RefIN4glTF4NodeEEESaIS4_EEixEm(ptr noundef nonnull align 8 dereferenceable(24) %jointNames3, i64 noundef 0) #16
  call void @llvm.memcpy.p0.p0.i64(ptr align 8 %retval, ptr align 8 %call4, i64 12, i1 false)
  br label %do.body

do.body:                                          ; preds = %do.cond, %entry
  call void @llvm.memcpy.p0.p0.i64(ptr align 8 %startNodeRef, ptr align 8 %retval, i64 12, i1 false)
  %call5 = call noundef ptr @_ZN10glTFCommon3RefIN4glTF4NodeEEptEv(ptr noundef nonnull align 8 dereferenceable(12) %startNodeRef)
  %parent = getelementptr inbounds %"struct.glTF::Node", ptr %call5, i32 0, i32 12
  call void @llvm.memcpy.p0.p0.i64(ptr align 8 %retval, ptr align 8 %parent, i64 12, i1 false)
  br label %do.cond

do.cond:                                          ; preds = %do.body
  %call6 = call noundef ptr @_ZN10glTFCommon3RefIN4glTF4NodeEEptEv(ptr noundef nonnull align 8 dereferenceable(12) %retval)
  %jointName = getelementptr inbounds %"struct.glTF::Node", ptr %call6, i32 0, i32 11
  %call7 = call noundef zeroext i1 @_ZNKSt7__cxx1112basic_stringIcSt11char_traitsIcESaIcEE5emptyEv(ptr noundef nonnull align 8 dereferenceable(32) %jointName) #16
  %lnot = xor i1 %call7, true
  br i1 %lnot, label %do.body, label %do.end, !llvm.loop !24

do.end:                                           ; preds = %do.cond
  %2 = load { ptr, i32 }, ptr %retval, align 8
  ret { ptr, i32 } %2
}