; Function Attrs: mustprogress nounwind uwtable
define hidden { ptr, i32 } @_Z21FindSkeletonRootJointRN10glTFCommon3RefIN4glTF4SkinEEE(ptr nocapture noundef nonnull readonly align 8 dereferenceable(12) %skinRef) local_unnamed_addr #1 {
entry:
  %0 = load ptr, ptr %skinRef, align 8
  %index.i3 = getelementptr inbounds i8, ptr %skinRef, i64 8
  %1 = load i32, ptr %index.i3, align 8
  %conv.i = zext i32 %1 to i64
  %2 = load ptr, ptr %0, align 8
  %add.ptr.i.i = getelementptr inbounds ptr, ptr %2, i64 %conv.i
  %3 = load ptr, ptr %add.ptr.i.i, align 8
  %jointNames = getelementptr inbounds i8, ptr %3, i64 160
  %4 = load ptr, ptr %jointNames, align 8
  %startNodeRef.sroa.4.0..sroa_idx = getelementptr inbounds i8, ptr %4, i64 8
  %retval.sroa.0.0.copyload = load ptr, ptr %4, align 8
  %retval.sroa.6.0.copyload = load i32, ptr %startNodeRef.sroa.4.0..sroa_idx, align 8
  br label %do.body

do.body:                                          ; preds = %do.body, %entry
  %retval.sroa.6.0 = phi i32 [ %retval.sroa.6.0.copyload, %entry ], [ %retval.sroa.6.0.copyload16, %do.body ]
  %retval.sroa.0.0 = phi ptr [ %retval.sroa.0.0.copyload, %entry ], [ %retval.sroa.0.0.copyload15, %do.body ]
  %conv.i8 = zext i32 %retval.sroa.6.0 to i64
  %5 = load ptr, ptr %retval.sroa.0.0, align 8
  %add.ptr.i.i9 = getelementptr inbounds ptr, ptr %5, i64 %conv.i8
  %6 = load ptr, ptr %add.ptr.i.i9, align 8
  %parent = getelementptr inbounds i8, ptr %6, i64 344
  %retval.sroa.0.0.copyload15 = load ptr, ptr %parent, align 8
  %retval.sroa.6.0.parent.sroa_idx = getelementptr inbounds i8, ptr %6, i64 352
  %retval.sroa.6.0.copyload16 = load i32, ptr %retval.sroa.6.0.parent.sroa_idx, align 8
  %conv.i11 = zext i32 %retval.sroa.6.0.copyload16 to i64
  %7 = load ptr, ptr %retval.sroa.0.0.copyload15, align 8
  %add.ptr.i.i12 = getelementptr inbounds ptr, ptr %7, i64 %conv.i11
  %8 = load ptr, ptr %add.ptr.i.i12, align 8
  %jointName = getelementptr inbounds i8, ptr %8, i64 312
  %call7 = tail call noundef zeroext i1 @_ZNKSt7__cxx1112basic_stringIcSt11char_traitsIcESaIcEE5emptyEv(ptr noundef nonnull align 8 dereferenceable(32) %jointName) #25
  br i1 %call7, label %do.end, label %do.body, !llvm.loop !53

do.end:                                           ; preds = %do.body
  %.fca.0.insert = insertvalue { ptr, i32 } poison, ptr %retval.sroa.0.0.copyload15, 0
  %.fca.1.insert = insertvalue { ptr, i32 } %.fca.0.insert, i32 %retval.sroa.6.0.copyload16, 1
  ret { ptr, i32 } %.fca.1.insert
}